; Function Attrs: nounwind uwtable
define dso_local nonnull ptr @core_yy_create_buffer(ptr noundef %0, i32 noundef %1, ptr noundef captures(none) %2) local_unnamed_addr #0 {
  %4 = tail call ptr @palloc(i64 noundef 64) #22
  %.not = icmp eq ptr %4, null
  br i1 %.not, label %5, label %6

5:                                                ; preds = %3
  tail call fastcc void @yy_fatal_error(ptr noundef nonnull @.str.30) #23
  unreachable

6:                                                ; preds = %3
  %7 = getelementptr inbounds nuw i8, ptr %4, i64 24
  store i32 %1, ptr %7, align 8
  %8 = add i32 %1, 2
  %9 = sext i32 %8 to i64
  %10 = tail call ptr @palloc(i64 noundef %9) #22
  %11 = getelementptr inbounds nuw i8, ptr %4, i64 8
  store ptr %10, ptr %11, align 8
  %.not14 = icmp eq ptr %10, null
  br i1 %.not14, label %12, label %13

12:                                               ; preds = %6
  tail call fastcc void @yy_fatal_error(ptr noundef nonnull @.str.30) #23
  unreachable

13:                                               ; preds = %6
  %14 = getelementptr inbounds nuw i8, ptr %4, i64 32
  store i32 1, ptr %14, align 8
  %15 = tail call ptr @__errno_location() #26
  %16 = load i32, ptr %15, align 4
  %17 = getelementptr inbounds nuw i8, ptr %4, i64 28
  store i32 0, ptr %17, align 4
  store i8 0, ptr %10, align 1
  %18 = load ptr, ptr %11, align 8
  %19 = getelementptr inbounds nuw i8, ptr %18, i64 1
  store i8 0, ptr %19, align 1
  %20 = load ptr, ptr %11, align 8
  %21 = getelementptr inbounds nuw i8, ptr %4, i64 16
  store ptr %20, ptr %21, align 8
  %22 = getelementptr inbounds nuw i8, ptr %4, i64 40
  store i32 1, ptr %22, align 8
  %23 = getelementptr inbounds nuw i8, ptr %4, i64 56
  store i32 0, ptr %23, align 8
  %24 = getelementptr inbounds nuw i8, ptr %2, i64 40
  %25 = load ptr, ptr %24, align 8
  %.not15.i.i = icmp eq ptr %25, null
  br i1 %.not15.i.i, label %core_yy_flush_buffer.exit.i, label %26

26:                                               ; preds = %13
  %27 = getelementptr inbounds nuw i8, ptr %2, i64 24
  %28 = load i64, ptr %27, align 8
  %29 = getelementptr inbounds nuw ptr, ptr %25, i64 %28
  %30 = load ptr, ptr %29, align 8
  %31 = icmp eq ptr %4, %30
  br i1 %31, label %32, label %core_yy_flush_buffer.exit.i

32:                                               ; preds = %26
  %33 = getelementptr inbounds nuw i8, ptr %30, i64 28
  %34 = load i32, ptr %33, align 4
  %35 = getelementptr inbounds nuw i8, ptr %2, i64 52
  store i32 %34, ptr %35, align 4
  %36 = load ptr, ptr %29, align 8
  %37 = getelementptr inbounds nuw i8, ptr %36, i64 16
  %38 = load ptr, ptr %37, align 8
  %39 = getelementptr inbounds nuw i8, ptr %2, i64 64
  store ptr %38, ptr %39, align 8
  %40 = getelementptr inbounds nuw i8, ptr %2, i64 128
  store ptr %38, ptr %40, align 8
  %41 = load ptr, ptr %29, align 8
  %42 = load ptr, ptr %41, align 8
  %43 = getelementptr inbounds nuw i8, ptr %2, i64 8
  store ptr %42, ptr %43, align 8
  %44 = load i8, ptr %38, align 1
  %45 = getelementptr inbounds nuw i8, ptr %2, i64 48
  store i8 %44, ptr %45, align 8
  br label %core_yy_flush_buffer.exit.i

core_yy_flush_buffer.exit.i:                      ; preds = %32, %26, %13
  store ptr %0, ptr %4, align 8
  %46 = getelementptr inbounds nuw i8, ptr %4, i64 52
  store i32 1, ptr %46, align 4
  %47 = load ptr, ptr %24, align 8
  %.not.i = icmp eq ptr %47, null
  br i1 %.not.i, label %.thread.i, label %48

48:                                               ; preds = %core_yy_flush_buffer.exit.i
  %49 = getelementptr inbounds nuw i8, ptr %2, i64 24
  %50 = load i64, ptr %49, align 8
  %51 = getelementptr inbounds nuw ptr, ptr %47, i64 %50
  %52 = load ptr, ptr %51, align 8
  %.not14.i = icmp eq ptr %4, %52
  br i1 %.not14.i, label %core_yy_init_buffer.exit, label %.thread.i

.thread.i:                                        ; preds = %48, %core_yy_flush_buffer.exit.i
  %53 = getelementptr inbounds nuw i8, ptr %4, i64 44
  store i32 1, ptr %53, align 4
  %54 = getelementptr inbounds nuw i8, ptr %4, i64 48
  store i32 0, ptr %54, align 8
  br label %core_yy_init_buffer.exit

core_yy_init_buffer.exit:                         ; preds = %48, %.thread.i
  %55 = getelementptr inbounds nuw i8, ptr %4, i64 36
  store i32 0, ptr %55, align 4
  store i32 %16, ptr %15, align 4
  ret ptr %4
}